target datalayout = "e-m:e-p270:32:32-p271:32:32-p272:64:64-i64:64-i128:128-f80:128-n8:16:32:64-S128"
target triple = "x86_64-pc-linux-gnu"

%struct._zend_llist_element = type { ptr, ptr, [1 x i8] }
%struct._zend_extension = type { ptr, ptr, ptr, ptr, ptr, ptr, ptr, ptr, ptr, ptr, ptr, ptr, ptr, ptr, ptr, ptr, ptr, ptr, ptr, ptr, ptr, ptr, ptr, ptr, ptr, i32 }

; Function Attrs: nounwind uwtable
define internal i32 @extension_name_cmp(ptr noundef %0, ptr noundef %1) #0 {
  %3 = alloca ptr, align 8
  %4 = alloca ptr, align 8
  %5 = alloca ptr, align 8
  %6 = alloca ptr, align 8
  store ptr %0, ptr %3, align 8, !tbaa !180
  store ptr %1, ptr %4, align 8, !tbaa !180
  call void @llvm.lifetime.start.p0(i64 8, ptr %5) #20
  %7 = load ptr, ptr %3, align 8, !tbaa !180
  %8 = load ptr, ptr %7, align 8, !tbaa !182
  %9 = getelementptr inbounds nuw %struct._zend_llist_element, ptr %8, i32 0, i32 2
  %10 = getelementptr inbounds [1 x i8], ptr %9, i64 0, i64 0
  store ptr %10, ptr %5, align 8, !tbaa !183
  call void @llvm.lifetime.start.p0(i64 8, ptr %6) #20
  %11 = load ptr, ptr %4, align 8, !tbaa !180
  %12 = load ptr, ptr %11, align 8, !tbaa !182
  %13 = getelementptr inbounds nuw %struct._zend_llist_element, ptr %12, i32 0, i32 2
  %14 = getelementptr inbounds [1 x i8], ptr %13, i64 0, i64 0
  store ptr %14, ptr %6, align 8, !tbaa !183
  %15 = load ptr, ptr %5, align 8, !tbaa !183
  %16 = getelementptr inbounds nuw %struct._zend_extension, ptr %15, i32 0, i32 0
  %17 = load ptr, ptr %16, align 8, !tbaa !185
  %18 = load ptr, ptr %6, align 8, !tbaa !183
  %19 = getelementptr inbounds nuw %struct._zend_extension, ptr %18, i32 0, i32 0
  %20 = load ptr, ptr %19, align 8, !tbaa !185
  %21 = call i32 @strcmp(ptr noundef %17, ptr noundef %20) #21
  call void @llvm.lifetime.end.p0(i64 8, ptr %6) #20
  call void @llvm.lifetime.end.p0(i64 8, ptr %5) #20
  ret i32 %21
}