; Function Attrs: mustprogress nofree nounwind willreturn memory(read, inaccessiblemem: none) uwtable
define internal i32 @extension_name_cmp(ptr noundef readonly captures(none) %0, ptr noundef readonly captures(none) %1) #25 {
  %3 = load ptr, ptr %0, align 8, !tbaa !163
  %4 = getelementptr inbounds nuw i8, ptr %3, i64 16
  %5 = load ptr, ptr %1, align 8, !tbaa !163
  %6 = getelementptr inbounds nuw i8, ptr %5, i64 16
  %7 = load ptr, ptr %4, align 8, !tbaa !164
  %8 = load ptr, ptr %6, align 8, !tbaa !164
  %9 = tail call i32 @strcmp(ptr noundef nonnull dereferenceable(1) %7, ptr noundef nonnull dereferenceable(1) %8) #30
  ret i32 %9
}